; Function Attrs: null_pointer_is_valid sspstrong uwtable
define internal i32 @dissect_mount1_mnt_reply(ptr noundef %0, ptr noundef %1, ptr noundef %2, ptr noundef %3) #0 {
  %5 = tail call i32 @tvb_get_ntohl(ptr noundef %0, i32 noundef 0)
  %6 = load i32, ptr @hf_mount3_status, align 4
  %7 = tail call i32 @dissect_rpc_uint32(ptr noundef %0, ptr noundef %2, i32 noundef %6, i32 noundef 0)
  %cond.i = icmp eq i32 %5, 0
  br i1 %cond.i, label %8, label %10

8:                                                ; preds = %4
  %9 = tail call i32 @dissect_fhandle(ptr noundef %0, i32 noundef %7, ptr noundef %1, ptr noundef %2, ptr noundef nonnull @.str.188, ptr noundef null, ptr noundef %3)
  br label %dissect_fhstatus.exit

10:                                               ; preds = %4
  %11 = getelementptr inbounds nuw i8, ptr %1, i64 8
  %12 = load ptr, ptr %11, align 8
  %13 = tail call ptr @val_to_str(i32 noundef %5, ptr noundef nonnull @mount3_mountstat3, ptr noundef nonnull @.str.190)
  tail call void (ptr, i32, ptr, ...) @col_append_fstr(ptr noundef %12, i32 noundef 25, ptr noundef nonnull @.str.189, ptr noundef %13)
  br label %dissect_fhstatus.exit

dissect_fhstatus.exit:                            ; preds = %8, %10
  %.0.i = phi i32 [ %9, %8 ], [ %7, %10 ]
  ret i32 %.0.i
}